target datalayout = "e-m:e-p270:32:32-p271:32:32-p272:64:64-i64:64-i128:128-f80:128-n8:16:32:64-S128"
target triple = "x86_64-pc-linux-gnu"

%struct.IDAMemRec = type { double, ptr, ptr, i32, double, double, ptr, i32, ptr, ptr, i32, ptr, ptr, i32, i32, double, double, ptr, i32, i32, i32, ptr, ptr, i32, ptr, ptr, ptr, i32, double, i32, i32, double, ptr, ptr, i32, ptr, ptr, i32, i32, i32, double, ptr, ptr, [6 x ptr], [6 x double], [6 x double], [6 x double], [6 x double], [6 x double], ptr, ptr, ptr, ptr, ptr, ptr, ptr, ptr, ptr, ptr, ptr, ptr, ptr, ptr, ptr, [6 x ptr], ptr, ptr, ptr, ptr, [6 x ptr], ptr, ptr, ptr, ptr, ptr, ptr, ptr, ptr, ptr, ptr, ptr, ptr, ptr, ptr, [6 x ptr], ptr, ptr, ptr, ptr, ptr, double, ptr, ptr, i32, i32, i32, i32, i32, i32, i32, double, double, double, i32, double, i32, i32, i32, i32, double, double, double, double, double, double, double, double, double, double, double, double, double, double, i32, i32, i32, i32, i32, i64, double, i32, i64, i64, i64, i64, i64, i64, i64, i64, i64, i64, i64, i64, i64, i64, i64, i64, i64, i64, i64, i64, i64, i64, i64, i64, ptr, ptr, ptr, i32, i32, i32, i32, i32, i32, i32, i32, i32, i32, i32, i32, i32, ptr, ptr, ptr, ptr, ptr, ptr, i32, i32, i32, i32, i32, i32, double, double, double, ptr, i32, ptr, ptr, double, double, double, ptr, ptr, ptr, double, double, i32, i32, i64, ptr, i32, i32, ptr, i32 }

@.str = private unnamed_addr constant [5 x i8] c"IDAS\00", align 1
@.str.4 = private unnamed_addr constant [24 x i8] c"ida_mem = NULL illegal.\00", align 1
@.str.30 = private unnamed_addr constant [52 x i8] c"Illegal attempt to call before calling IDASensInit.\00", align 1
@.str.74 = private unnamed_addr constant [20 x i8] c"dky = NULL illegal.\00", align 1
@.str.75 = private unnamed_addr constant [21 x i8] c"Illegal value for k.\00", align 1
@.str.80 = private unnamed_addr constant [14 x i8] c"IDAGetSensDky\00", align 1

; Function Attrs: nounwind uwtable
define i32 @IDAGetSensDky(ptr noundef %0, double noundef %1, i32 noundef %2, ptr noundef %3) #0 {
  %5 = alloca i32, align 4
  %6 = alloca ptr, align 8
  %7 = alloca double, align 8
  %8 = alloca i32, align 4
  %9 = alloca ptr, align 8
  %10 = alloca i32, align 4
  %11 = alloca i32, align 4
  %12 = alloca ptr, align 8
  %13 = alloca i32, align 4
  store ptr %0, ptr %6, align 8, !tbaa !91
  store double %1, ptr %7, align 8, !tbaa !92
  store i32 %2, ptr %8, align 4, !tbaa !88
  store ptr %3, ptr %9, align 8, !tbaa !94
  call void @llvm.lifetime.start.p0(i64 4, ptr %10) #8
  call void @llvm.lifetime.start.p0(i64 4, ptr %11) #8
  store i32 0, ptr %11, align 4, !tbaa !88
  call void @llvm.lifetime.start.p0(i64 8, ptr %12) #8
  %14 = load ptr, ptr %6, align 8, !tbaa !91
  %15 = icmp eq ptr %14, null
  br i1 %15, label %16, label %17

16:                                               ; preds = %4
  call void (ptr, i32, ptr, ptr, ptr, ...) @IDAProcessError(ptr noundef null, i32 noundef -20, ptr noundef @.str, ptr noundef @.str.80, ptr noundef @.str.4)
  store i32 -20, ptr %5, align 4
  store i32 1, ptr %13, align 4
  br label %68

17:                                               ; preds = %4
  %18 = load ptr, ptr %6, align 8, !tbaa !91
  store ptr %18, ptr %12, align 8, !tbaa !3
  %19 = load ptr, ptr %12, align 8, !tbaa !3
  %20 = getelementptr inbounds nuw %struct.IDAMemRec, ptr %19, i32 0, i32 18
  %21 = load i32, ptr %20, align 8, !tbaa !53
  %22 = icmp eq i32 %21, 0
  br i1 %22, label %23, label %25

23:                                               ; preds = %17
  %24 = load ptr, ptr %12, align 8, !tbaa !3
  call void (ptr, i32, ptr, ptr, ptr, ...) @IDAProcessError(ptr noundef %24, i32 noundef -40, ptr noundef @.str, ptr noundef @.str.80, ptr noundef @.str.30)
  store i32 -40, ptr %5, align 4
  store i32 1, ptr %13, align 4
  br label %68

25:                                               ; preds = %17
  %26 = load ptr, ptr %9, align 8, !tbaa !94
  %27 = icmp eq ptr %26, null
  br i1 %27, label %28, label %30

28:                                               ; preds = %25
  %29 = load ptr, ptr %12, align 8, !tbaa !3
  call void (ptr, i32, ptr, ptr, ptr, ...) @IDAProcessError(ptr noundef %29, i32 noundef -27, ptr noundef @.str, ptr noundef @.str.80, ptr noundef @.str.74)
  store i32 -27, ptr %5, align 4
  store i32 1, ptr %13, align 4
  br label %68

30:                                               ; preds = %25
  %31 = load i32, ptr %8, align 4, !tbaa !88
  %32 = icmp slt i32 %31, 0
  br i1 %32, label %39, label %33

33:                                               ; preds = %30
  %34 = load i32, ptr %8, align 4, !tbaa !88
  %35 = load ptr, ptr %12, align 8, !tbaa !3
  %36 = getelementptr inbounds nuw %struct.IDAMemRec, ptr %35, i32 0, i32 105
  %37 = load i32, ptr %36, align 8, !tbaa !231
  %38 = icmp sgt i32 %34, %37
  br i1 %38, label %39, label %41

39:                                               ; preds = %33, %30
  %40 = load ptr, ptr %12, align 8, !tbaa !3
  call void (ptr, i32, ptr, ptr, ptr, ...) @IDAProcessError(ptr noundef %40, i32 noundef -25, ptr noundef @.str, ptr noundef @.str.80, ptr noundef @.str.75)
  store i32 -25, ptr %5, align 4
  store i32 1, ptr %13, align 4
  br label %68

41:                                               ; preds = %33
  store i32 0, ptr %10, align 4, !tbaa !88
  br label %42

42:                                               ; preds = %63, %41
  %43 = load i32, ptr %10, align 4, !tbaa !88
  %44 = load ptr, ptr %12, align 8, !tbaa !3
  %45 = getelementptr inbounds nuw %struct.IDAMemRec, ptr %44, i32 0, i32 19
  %46 = load i32, ptr %45, align 4, !tbaa !173
  %47 = icmp slt i32 %43, %46
  br i1 %47, label %48, label %66

48:                                               ; preds = %42
  %49 = load ptr, ptr %6, align 8, !tbaa !91
  %50 = load double, ptr %7, align 8, !tbaa !92
  %51 = load i32, ptr %8, align 4, !tbaa !88
  %52 = load i32, ptr %10, align 4, !tbaa !88
  %53 = load ptr, ptr %9, align 8, !tbaa !94
  %54 = load i32, ptr %10, align 4, !tbaa !88
  %55 = sext i32 %54 to i64
  %56 = getelementptr inbounds ptr, ptr %53, i64 %55
  %57 = load ptr, ptr %56, align 8, !tbaa !93
  %58 = call i32 @IDAGetSensDky1(ptr noundef %49, double noundef %50, i32 noundef %51, i32 noundef %52, ptr noundef %57)
  store i32 %58, ptr %11, align 4, !tbaa !88
  %59 = load i32, ptr %11, align 4, !tbaa !88
  %60 = icmp ne i32 %59, 0
  br i1 %60, label %61, label %62

61:                                               ; preds = %48
  br label %66

62:                                               ; preds = %48
  br label %63

63:                                               ; preds = %62
  %64 = load i32, ptr %10, align 4, !tbaa !88
  %65 = add nsw i32 %64, 1
  store i32 %65, ptr %10, align 4, !tbaa !88
  br label %42, !llvm.loop !272

66:                                               ; preds = %61, %42
  %67 = load i32, ptr %11, align 4, !tbaa !88
  store i32 %67, ptr %5, align 4
  store i32 1, ptr %13, align 4
  br label %68

68:                                               ; preds = %66, %39, %28, %23, %16
  call void @llvm.lifetime.end.p0(i64 8, ptr %12) #8
  call void @llvm.lifetime.end.p0(i64 4, ptr %11) #8
  call void @llvm.lifetime.end.p0(i64 4, ptr %10) #8
  %69 = load i32, ptr %5, align 4
  ret i32 %69
}