; Function Attrs: nounwind uwtable
define range(i32 -40, 1) i32 @IDAGetSensDky(ptr noundef captures(address_is_null) %0, double noundef %1, i32 noundef %2, ptr noundef readonly captures(address_is_null) %3) local_unnamed_addr #0 {
  %5 = icmp eq ptr %0, null
  br i1 %5, label %6, label %7

6:                                                ; preds = %4
  tail call void (ptr, i32, ptr, ptr, ptr, ...) @IDAProcessError(ptr noundef null, i32 noundef -20, ptr noundef nonnull @.str, ptr noundef nonnull @.str.80, ptr noundef nonnull @.str.4)
  br label %.loopexit

7:                                                ; preds = %4
  %8 = getelementptr inbounds nuw i8, ptr %0, i64 136
  %9 = load i32, ptr %8, align 8, !tbaa !37
  %10 = icmp eq i32 %9, 0
  br i1 %10, label %11, label %12

11:                                               ; preds = %7
  tail call void (ptr, i32, ptr, ptr, ptr, ...) @IDAProcessError(ptr noundef nonnull %0, i32 noundef -40, ptr noundef nonnull @.str, ptr noundef nonnull @.str.80, ptr noundef nonnull @.str.30)
  br label %.loopexit

12:                                               ; preds = %7
  %13 = icmp eq ptr %3, null
  br i1 %13, label %14, label %15

14:                                               ; preds = %12
  tail call void (ptr, i32, ptr, ptr, ptr, ...) @IDAProcessError(ptr noundef nonnull %0, i32 noundef -27, ptr noundef nonnull @.str, ptr noundef nonnull @.str.80, ptr noundef nonnull @.str.74)
  br label %.loopexit

15:                                               ; preds = %12
  %16 = icmp slt i32 %2, 0
  br i1 %16, label %24, label %17

17:                                               ; preds = %15
  %18 = getelementptr inbounds nuw i8, ptr %0, i64 1144
  %19 = load i32, ptr %18, align 8, !tbaa !211
  %20 = icmp sgt i32 %2, %19
  br i1 %20, label %24, label %.preheader

.preheader:                                       ; preds = %17
  %21 = getelementptr inbounds nuw i8, ptr %0, i64 140
  %22 = load i32, ptr %21, align 4, !tbaa !139
  %23 = icmp sgt i32 %22, 0
  br i1 %23, label %.lr.ph, label %.loopexit

24:                                               ; preds = %17, %15
  tail call void (ptr, i32, ptr, ptr, ptr, ...) @IDAProcessError(ptr noundef nonnull %0, i32 noundef -25, ptr noundef nonnull @.str, ptr noundef nonnull @.str.80, ptr noundef nonnull @.str.75)
  br label %.loopexit

25:                                               ; preds = %.lr.ph
  %indvars.iv.next = add nuw nsw i64 %indvars.iv, 1
  %26 = load i32, ptr %21, align 4, !tbaa !139
  %27 = sext i32 %26 to i64
  %28 = icmp slt i64 %indvars.iv.next, %27
  br i1 %28, label %.lr.ph, label %.loopexit, !llvm.loop !319

.lr.ph:                                           ; preds = %.preheader, %25
  %indvars.iv = phi i64 [ %indvars.iv.next, %25 ], [ 0, %.preheader ]
  %29 = getelementptr inbounds nuw ptr, ptr %3, i64 %indvars.iv
  %30 = load ptr, ptr %29, align 8, !tbaa !57
  %31 = trunc nuw nsw i64 %indvars.iv to i32
  %32 = tail call i32 @IDAGetSensDky1(ptr noundef nonnull %0, double noundef %1, i32 noundef %2, i32 noundef %31, ptr noundef %30)
  %.not = icmp eq i32 %32, 0
  br i1 %.not, label %25, label %.loopexit

.loopexit:                                        ; preds = %.lr.ph, %25, %.preheader, %24, %14, %11, %6
  %.0 = phi i32 [ -20, %6 ], [ -40, %11 ], [ -27, %14 ], [ -25, %24 ], [ 0, %.preheader ], [ %32, %.lr.ph ], [ 0, %25 ]
  ret i32 %.0
}